target datalayout = "e-m:e-p270:32:32-p271:32:32-p272:64:64-i64:64-i128:128-f80:128-n8:16:32:64-S128"
target triple = "x86_64-pc-linux-gnu"

%struct.mbedtls_ecp_group = type { i32, %struct.mbedtls_mpi, %struct.mbedtls_mpi, %struct.mbedtls_mpi, %struct.mbedtls_ecp_point, %struct.mbedtls_mpi, i64, i64, i32, ptr, ptr, ptr, ptr, ptr, i64 }
%struct.mbedtls_ecp_point = type { %struct.mbedtls_mpi, %struct.mbedtls_mpi, %struct.mbedtls_mpi }
%struct.mbedtls_mpi = type { ptr, i16, i16 }

; Function Attrs: nounwind uwtable
define internal i32 @mbedtls_ecp_sw_derive_y(ptr noundef %0, ptr noundef %1, ptr noundef %2, i32 noundef %3) #0 {
  %5 = alloca i32, align 4
  %6 = alloca ptr, align 8
  %7 = alloca ptr, align 8
  %8 = alloca ptr, align 8
  %9 = alloca i32, align 4
  %10 = alloca i32, align 4
  %11 = alloca %struct.mbedtls_mpi, align 8
  store ptr %0, ptr %6, align 8, !tbaa !25
  store ptr %1, ptr %7, align 8, !tbaa !50
  store ptr %2, ptr %8, align 8, !tbaa !50
  store i32 %3, ptr %9, align 4, !tbaa !3
  %12 = load ptr, ptr %6, align 8, !tbaa !25
  %13 = getelementptr inbounds nuw %struct.mbedtls_ecp_group, ptr %12, i32 0, i32 1
  %14 = call i32 @mbedtls_mpi_get_bit(ptr noundef %13, i64 noundef 0)
  %15 = icmp ne i32 %14, 1
  br i1 %15, label %21, label %16

16:                                               ; preds = %4
  %17 = load ptr, ptr %6, align 8, !tbaa !25
  %18 = getelementptr inbounds nuw %struct.mbedtls_ecp_group, ptr %17, i32 0, i32 1
  %19 = call i32 @mbedtls_mpi_get_bit(ptr noundef %18, i64 noundef 1)
  %20 = icmp ne i32 %19, 1
  br i1 %20, label %21, label %22

21:                                               ; preds = %16, %4
  store i32 -20096, ptr %5, align 4
  br label %79

22:                                               ; preds = %16
  call void @llvm.lifetime.start.p0(i64 4, ptr %10) #11
  call void @llvm.lifetime.start.p0(i64 16, ptr %11) #11
  call void @mbedtls_mpi_init(ptr noundef %11)
  br label %23

23:                                               ; preds = %22
  %24 = load ptr, ptr %6, align 8, !tbaa !25
  %25 = load ptr, ptr %8, align 8, !tbaa !50
  %26 = load ptr, ptr %7, align 8, !tbaa !50
  %27 = call i32 @ecp_sw_rhs(ptr noundef %24, ptr noundef %25, ptr noundef %26)
  store i32 %27, ptr %10, align 4, !tbaa !3
  %28 = icmp ne i32 %27, 0
  br i1 %28, label %29, label %30

29:                                               ; preds = %23
  br label %77

30:                                               ; preds = %23
  br label %31

31:                                               ; preds = %30
  br label %32

32:                                               ; preds = %31
  br label %33

33:                                               ; preds = %32
  %34 = load ptr, ptr %6, align 8, !tbaa !25
  %35 = getelementptr inbounds nuw %struct.mbedtls_ecp_group, ptr %34, i32 0, i32 1
  %36 = call i32 @mbedtls_mpi_add_int(ptr noundef %11, ptr noundef %35, i64 noundef 1)
  store i32 %36, ptr %10, align 4, !tbaa !3
  %37 = icmp ne i32 %36, 0
  br i1 %37, label %38, label %39

38:                                               ; preds = %33
  br label %77

39:                                               ; preds = %33
  br label %40

40:                                               ; preds = %39
  br label %41

41:                                               ; preds = %40
  br label %42

42:                                               ; preds = %41
  %43 = call i32 @mbedtls_mpi_shift_r(ptr noundef %11, i64 noundef 2)
  store i32 %43, ptr %10, align 4, !tbaa !3
  %44 = icmp ne i32 %43, 0
  br i1 %44, label %45, label %46

45:                                               ; preds = %42
  br label %77

46:                                               ; preds = %42
  br label %47

47:                                               ; preds = %46
  br label %48

48:                                               ; preds = %47
  br label %49

49:                                               ; preds = %48
  %50 = load ptr, ptr %8, align 8, !tbaa !50
  %51 = load ptr, ptr %8, align 8, !tbaa !50
  %52 = load ptr, ptr %6, align 8, !tbaa !25
  %53 = getelementptr inbounds nuw %struct.mbedtls_ecp_group, ptr %52, i32 0, i32 1
  %54 = call i32 @mbedtls_mpi_exp_mod(ptr noundef %50, ptr noundef %51, ptr noundef %11, ptr noundef %53, ptr noundef null)
  store i32 %54, ptr %10, align 4, !tbaa !3
  %55 = icmp ne i32 %54, 0
  br i1 %55, label %56, label %57

56:                                               ; preds = %49
  br label %77

57:                                               ; preds = %49
  br label %58

58:                                               ; preds = %57
  br label %59

59:                                               ; preds = %58
  %60 = load ptr, ptr %8, align 8, !tbaa !50
  %61 = call i32 @mbedtls_mpi_get_bit(ptr noundef %60, i64 noundef 0)
  %62 = load i32, ptr %9, align 4, !tbaa !3
  %63 = icmp ne i32 %61, %62
  br i1 %63, label %64, label %76

64:                                               ; preds = %59
  br label %65

65:                                               ; preds = %64
  %66 = load ptr, ptr %8, align 8, !tbaa !50
  %67 = load ptr, ptr %6, align 8, !tbaa !25
  %68 = getelementptr inbounds nuw %struct.mbedtls_ecp_group, ptr %67, i32 0, i32 1
  %69 = load ptr, ptr %8, align 8, !tbaa !50
  %70 = call i32 @mbedtls_mpi_sub_mpi(ptr noundef %66, ptr noundef %68, ptr noundef %69)
  store i32 %70, ptr %10, align 4, !tbaa !3
  %71 = icmp ne i32 %70, 0
  br i1 %71, label %72, label %73

72:                                               ; preds = %65
  br label %77

73:                                               ; preds = %65
  br label %74

74:                                               ; preds = %73
  br label %75

75:                                               ; preds = %74
  br label %76

76:                                               ; preds = %75, %59
  br label %77

77:                                               ; preds = %76, %72, %56, %45, %38, %29
  call void @mbedtls_mpi_free(ptr noundef %11)
  %78 = load i32, ptr %10, align 4, !tbaa !3
  store i32 %78, ptr %5, align 4
  call void @llvm.lifetime.end.p0(i64 16, ptr %11) #11
  call void @llvm.lifetime.end.p0(i64 4, ptr %10) #11
  br label %79

79:                                               ; preds = %77, %21
  %80 = load i32, ptr %5, align 4
  ret i32 %80
}