; Function Attrs: nounwind uwtable
define internal fastcc i32 @mbedtls_ecp_sw_derive_y(ptr noundef %0, ptr noundef %1, ptr noundef %2, i32 noundef range(i32 0, 2) %3) unnamed_addr #7 {
  %5 = alloca %struct.mbedtls_mpi, align 8
  %6 = getelementptr inbounds nuw i8, ptr %0, i64 8
  %7 = tail call i32 @mbedtls_mpi_get_bit(ptr noundef nonnull %6, i64 noundef 0) #21
  %.not = icmp eq i32 %7, 1
  br i1 %.not, label %8, label %23

8:                                                ; preds = %4
  %9 = tail call i32 @mbedtls_mpi_get_bit(ptr noundef nonnull %6, i64 noundef 1) #21
  %.not20 = icmp eq i32 %9, 1
  br i1 %.not20, label %10, label %23

10:                                               ; preds = %8
  call void @llvm.lifetime.start.p0(i64 16, ptr nonnull %5) #21
  call void @mbedtls_mpi_init(ptr noundef nonnull %5) #21
  %11 = call fastcc i32 @ecp_sw_rhs(ptr noundef nonnull %0, ptr noundef %2, ptr noundef %1)
  %.not21 = icmp eq i32 %11, 0
  br i1 %.not21, label %12, label %22

12:                                               ; preds = %10
  %13 = call i32 @mbedtls_mpi_add_int(ptr noundef nonnull %5, ptr noundef nonnull %6, i64 noundef 1) #21
  %.not22 = icmp eq i32 %13, 0
  br i1 %.not22, label %14, label %22

14:                                               ; preds = %12
  %15 = call i32 @mbedtls_mpi_shift_r(ptr noundef nonnull %5, i64 noundef 2) #21
  %.not23 = icmp eq i32 %15, 0
  br i1 %.not23, label %16, label %22

16:                                               ; preds = %14
  %17 = call i32 @mbedtls_mpi_exp_mod(ptr noundef %2, ptr noundef %2, ptr noundef nonnull %5, ptr noundef nonnull %6, ptr noundef null) #21
  %.not24 = icmp eq i32 %17, 0
  br i1 %.not24, label %18, label %22

18:                                               ; preds = %16
  %19 = call i32 @mbedtls_mpi_get_bit(ptr noundef %2, i64 noundef 0) #21
  %.not25 = icmp eq i32 %19, %3
  br i1 %.not25, label %22, label %20

20:                                               ; preds = %18
  %21 = call i32 @mbedtls_mpi_sub_mpi(ptr noundef %2, ptr noundef nonnull %6, ptr noundef %2) #21
  br label %22

22:                                               ; preds = %20, %18, %16, %14, %12, %10
  %.0 = phi i32 [ %11, %10 ], [ %13, %12 ], [ %15, %14 ], [ %17, %16 ], [ %21, %20 ], [ 0, %18 ]
  call void @mbedtls_mpi_free(ptr noundef nonnull %5) #21
  call void @llvm.lifetime.end.p0(i64 16, ptr nonnull %5) #21
  br label %23

23:                                               ; preds = %4, %8, %22
  %.015 = phi i32 [ %.0, %22 ], [ -20096, %8 ], [ -20096, %4 ]
  ret i32 %.015
}